target datalayout = "e-m:e-p270:32:32-p271:32:32-p272:64:64-i64:64-i128:128-f80:128-n8:16:32:64-S128"
target triple = "x86_64-pc-linux-gnu"

%struct.btBatchedConstraints = type { %class.btAlignedObjectArray.2, %class.btAlignedObjectArray.6, %class.btAlignedObjectArray.6, %class.btAlignedObjectArray.8, %class.btAlignedObjectArray.2, ptr }
%class.btAlignedObjectArray.6 = type <{ [4 x i8], i32, i32, [4 x i8], ptr, i8, [7 x i8] }>
%class.btAlignedObjectArray.2 = type <{ [4 x i8], i32, i32, [4 x i8], ptr, i8, [7 x i8] }>
%class.btAlignedObjectArray.8 = type <{ [4 x i8], i32, i32, [4 x i8], ptr, i8, [7 x i8] }>
%"struct.btBatchedConstraints::Range" = type { i32, i32 }

; Function Attrs: inlinehint mustprogress nounwind uwtable
define linkonce_odr dso_local noundef nonnull align 4 dereferenceable(8) ptr @_ZN20btAlignedObjectArrayIN20btBatchedConstraints5RangeEEixEi(ptr noundef nonnull align 8 dereferenceable(25) %0, i32 noundef %1) #4 comdat align 2 {
  %3 = alloca ptr, align 8
  %4 = alloca i32, align 4
  store ptr %0, ptr %3, align 8, !tbaa !124
  store i32 %1, ptr %4, align 4, !tbaa !9
  %5 = load ptr, ptr %3, align 8
  %6 = getelementptr inbounds nuw %class.btAlignedObjectArray.6, ptr %5, i32 0, i32 4
  %7 = load ptr, ptr %6, align 8, !tbaa !127
  %8 = load i32, ptr %4, align 4, !tbaa !9
  %9 = sext i32 %8 to i64
  %10 = getelementptr inbounds %"struct.btBatchedConstraints::Range", ptr %7, i64 %9
  ret ptr %10
}

; Function Attrs: inlinehint mustprogress nounwind uwtable
define linkonce_odr dso_local noundef i32 @_ZNK20btAlignedObjectArrayIN20btBatchedConstraints5RangeEE4sizeEv(ptr noundef nonnull align 8 dereferenceable(25) %0) #4 comdat align 2 {
  %2 = alloca ptr, align 8
  store ptr %0, ptr %2, align 8, !tbaa !124
  %3 = load ptr, ptr %2, align 8
  %4 = getelementptr inbounds nuw %class.btAlignedObjectArray.6, ptr %3, i32 0, i32 1
  %5 = load i32, ptr %4, align 4, !tbaa !126
  ret i32 %5
}

; Function Attrs: mustprogress nounwind uwtable
define linkonce_odr dso_local void @_ZN20btAlignedObjectArrayIiE4swapEii(ptr noundef nonnull align 8 dereferenceable(25) %0, i32 noundef %1, i32 noundef %2) #1 comdat align 2 {
  %4 = alloca ptr, align 8
  %5 = alloca i32, align 4
  %6 = alloca i32, align 4
  %7 = alloca i32, align 4
  store ptr %0, ptr %4, align 8, !tbaa !56
  store i32 %1, ptr %5, align 4, !tbaa !9
  store i32 %2, ptr %6, align 4, !tbaa !9
  %8 = load ptr, ptr %4, align 8
  call void @llvm.lifetime.start.p0(i64 4, ptr %7) #16
  %9 = getelementptr inbounds nuw %class.btAlignedObjectArray.2, ptr %8, i32 0, i32 4
  %10 = load ptr, ptr %9, align 8, !tbaa !106
  %11 = load i32, ptr %5, align 4, !tbaa !9
  %12 = sext i32 %11 to i64
  %13 = getelementptr inbounds i32, ptr %10, i64 %12
  %14 = load i32, ptr %13, align 4, !tbaa !9
  store i32 %14, ptr %7, align 4, !tbaa !9
  %15 = getelementptr inbounds nuw %class.btAlignedObjectArray.2, ptr %8, i32 0, i32 4
  %16 = load ptr, ptr %15, align 8, !tbaa !106
  %17 = load i32, ptr %6, align 4, !tbaa !9
  %18 = sext i32 %17 to i64
  %19 = getelementptr inbounds i32, ptr %16, i64 %18
  %20 = load i32, ptr %19, align 4, !tbaa !9
  %21 = getelementptr inbounds nuw %class.btAlignedObjectArray.2, ptr %8, i32 0, i32 4
  %22 = load ptr, ptr %21, align 8, !tbaa !106
  %23 = load i32, ptr %5, align 4, !tbaa !9
  %24 = sext i32 %23 to i64
  %25 = getelementptr inbounds i32, ptr %22, i64 %24
  store i32 %20, ptr %25, align 4, !tbaa !9
  %26 = load i32, ptr %7, align 4, !tbaa !9
  %27 = getelementptr inbounds nuw %class.btAlignedObjectArray.2, ptr %8, i32 0, i32 4
  %28 = load ptr, ptr %27, align 8, !tbaa !106
  %29 = load i32, ptr %6, align 4, !tbaa !9
  %30 = sext i32 %29 to i64
  %31 = getelementptr inbounds i32, ptr %28, i64 %30
  store i32 %26, ptr %31, align 4, !tbaa !9
  call void @llvm.lifetime.end.p0(i64 4, ptr %7) #16
  ret void
}

; Function Attrs: inlinehint mustprogress nounwind uwtable
define linkonce_odr dso_local noundef i32 @_ZNK20btAlignedObjectArrayIiE4sizeEv(ptr noundef nonnull align 8 dereferenceable(25) %0) #4 comdat align 2 {
  %2 = alloca ptr, align 8
  store ptr %0, ptr %2, align 8, !tbaa !56
  %3 = load ptr, ptr %2, align 8
  %4 = getelementptr inbounds nuw %class.btAlignedObjectArray.2, ptr %3, i32 0, i32 1
  %5 = load i32, ptr %4, align 4, !tbaa !143
  ret i32 %5
}

; Function Attrs: mustprogress uwtable
define dso_local void @_ZN37btSequentialImpulseConstraintSolverMt34randomizeBatchedConstraintOrderingEP20btBatchedConstraints(ptr noundef nonnull align 8 dereferenceable(920) %0, ptr noundef %1) #2 align 2 {
  %3 = alloca ptr, align 8
  %4 = alloca ptr, align 8
  %5 = alloca ptr, align 8
  %6 = alloca i32, align 4
  %7 = alloca i32, align 4
  %8 = alloca i32, align 4
  %9 = alloca i32, align 4
  %10 = alloca ptr, align 8
  %11 = alloca i32, align 4
  %12 = alloca i32, align 4
  store ptr %0, ptr %3, align 8, !tbaa !12
  store ptr %1, ptr %4, align 8, !tbaa !51
  %13 = load ptr, ptr %3, align 8
  call void @llvm.lifetime.start.p0(i64 8, ptr %5) #16
  %14 = load ptr, ptr %4, align 8, !tbaa !51
  store ptr %14, ptr %5, align 8, !tbaa !51
  call void @llvm.lifetime.start.p0(i64 4, ptr %6) #16
  store i32 1, ptr %6, align 4, !tbaa !9
  br label %15

15:                                               ; preds = %30, %2
  %16 = load i32, ptr %6, align 4, !tbaa !9
  %17 = load ptr, ptr %5, align 8, !tbaa !51
  %18 = getelementptr inbounds nuw %struct.btBatchedConstraints, ptr %17, i32 0, i32 4
  %19 = call noundef i32 @_ZNK20btAlignedObjectArrayIiE4sizeEv(ptr noundef nonnull align 8 dereferenceable(25) %18)
  %20 = icmp slt i32 %16, %19
  br i1 %20, label %22, label %21

21:                                               ; preds = %15
  call void @llvm.lifetime.end.p0(i64 4, ptr %6) #16
  br label %33

22:                                               ; preds = %15
  call void @llvm.lifetime.start.p0(i64 4, ptr %7) #16
  %23 = load i32, ptr %6, align 4, !tbaa !9
  %24 = add nsw i32 %23, 1
  %25 = call noundef i32 @_ZN35btSequentialImpulseConstraintSolver10btRandInt2Ei(ptr noundef nonnull align 8 dereferenceable(408) %13, i32 noundef %24)
  store i32 %25, ptr %7, align 4, !tbaa !9
  %26 = load ptr, ptr %5, align 8, !tbaa !51
  %27 = getelementptr inbounds nuw %struct.btBatchedConstraints, ptr %26, i32 0, i32 4
  %28 = load i32, ptr %6, align 4, !tbaa !9
  %29 = load i32, ptr %7, align 4, !tbaa !9
  call void @_ZN20btAlignedObjectArrayIiE4swapEii(ptr noundef nonnull align 8 dereferenceable(25) %27, i32 noundef %28, i32 noundef %29)
  call void @llvm.lifetime.end.p0(i64 4, ptr %7) #16
  br label %30

30:                                               ; preds = %22
  %31 = load i32, ptr %6, align 4, !tbaa !9
  %32 = add nsw i32 %31, 1
  store i32 %32, ptr %6, align 4, !tbaa !9
  br label %15, !llvm.loop !286

33:                                               ; preds = %21
  call void @llvm.lifetime.start.p0(i64 4, ptr %8) #16
  store i32 0, ptr %8, align 4, !tbaa !9
  br label %34

34:                                               ; preds = %76, %33
  %35 = load i32, ptr %8, align 4, !tbaa !9
  %36 = load ptr, ptr %5, align 8, !tbaa !51
  %37 = getelementptr inbounds nuw %struct.btBatchedConstraints, ptr %36, i32 0, i32 1
  %38 = call noundef i32 @_ZNK20btAlignedObjectArrayIN20btBatchedConstraints5RangeEE4sizeEv(ptr noundef nonnull align 8 dereferenceable(25) %37)
  %39 = icmp slt i32 %35, %38
  br i1 %39, label %41, label %40

40:                                               ; preds = %34
  store i32 5, ptr %9, align 4
  call void @llvm.lifetime.end.p0(i64 4, ptr %8) #16
  br label %79

41:                                               ; preds = %34
  call void @llvm.lifetime.start.p0(i64 8, ptr %10) #16
  %42 = load ptr, ptr %5, align 8, !tbaa !51
  %43 = getelementptr inbounds nuw %struct.btBatchedConstraints, ptr %42, i32 0, i32 1
  %44 = load i32, ptr %8, align 4, !tbaa !9
  %45 = call noundef nonnull align 4 dereferenceable(8) ptr @_ZN20btAlignedObjectArrayIN20btBatchedConstraints5RangeEEixEi(ptr noundef nonnull align 8 dereferenceable(25) %43, i32 noundef %44)
  store ptr %45, ptr %10, align 8, !tbaa !111
  call void @llvm.lifetime.start.p0(i64 4, ptr %11) #16
  %46 = load ptr, ptr %10, align 8, !tbaa !111
  %47 = getelementptr inbounds nuw %"struct.btBatchedConstraints::Range", ptr %46, i32 0, i32 0
  %48 = load i32, ptr %47, align 4, !tbaa !112
  store i32 %48, ptr %11, align 4, !tbaa !9
  br label %49

49:                                               ; preds = %72, %41
  %50 = load i32, ptr %11, align 4, !tbaa !9
  %51 = load ptr, ptr %10, align 8, !tbaa !111
  %52 = getelementptr inbounds nuw %"struct.btBatchedConstraints::Range", ptr %51, i32 0, i32 1
  %53 = load i32, ptr %52, align 4, !tbaa !114
  %54 = icmp slt i32 %50, %53
  br i1 %54, label %56, label %55

55:                                               ; preds = %49
  store i32 8, ptr %9, align 4
  call void @llvm.lifetime.end.p0(i64 4, ptr %11) #16
  br label %75

56:                                               ; preds = %49
  call void @llvm.lifetime.start.p0(i64 4, ptr %12) #16
  %57 = load ptr, ptr %10, align 8, !tbaa !111
  %58 = getelementptr inbounds nuw %"struct.btBatchedConstraints::Range", ptr %57, i32 0, i32 0
  %59 = load i32, ptr %58, align 4, !tbaa !112
  %60 = load i32, ptr %11, align 4, !tbaa !9
  %61 = load ptr, ptr %10, align 8, !tbaa !111
  %62 = getelementptr inbounds nuw %"struct.btBatchedConstraints::Range", ptr %61, i32 0, i32 0
  %63 = load i32, ptr %62, align 4, !tbaa !112
  %64 = sub nsw i32 %60, %63
  %65 = add nsw i32 %64, 1
  %66 = call noundef i32 @_ZN35btSequentialImpulseConstraintSolver10btRandInt2Ei(ptr noundef nonnull align 8 dereferenceable(408) %13, i32 noundef %65)
  %67 = add nsw i32 %59, %66
  store i32 %67, ptr %12, align 4, !tbaa !9
  %68 = load ptr, ptr %5, align 8, !tbaa !51
  %69 = getelementptr inbounds nuw %struct.btBatchedConstraints, ptr %68, i32 0, i32 0
  %70 = load i32, ptr %11, align 4, !tbaa !9
  %71 = load i32, ptr %12, align 4, !tbaa !9
  call void @_ZN20btAlignedObjectArrayIiE4swapEii(ptr noundef nonnull align 8 dereferenceable(25) %69, i32 noundef %70, i32 noundef %71)
  call void @llvm.lifetime.end.p0(i64 4, ptr %12) #16
  br label %72

72:                                               ; preds = %56
  %73 = load i32, ptr %11, align 4, !tbaa !9
  %74 = add nsw i32 %73, 1
  store i32 %74, ptr %11, align 4, !tbaa !9
  br label %49, !llvm.loop !287

75:                                               ; preds = %55
  call void @llvm.lifetime.end.p0(i64 8, ptr %10) #16
  br label %76

76:                                               ; preds = %75
  %77 = load i32, ptr %8, align 4, !tbaa !9
  %78 = add nsw i32 %77, 1
  store i32 %78, ptr %8, align 4, !tbaa !9
  br label %34, !llvm.loop !288

79:                                               ; preds = %40
  call void @llvm.lifetime.end.p0(i64 8, ptr %5) #16
  ret void
}