; Function Attrs: mustprogress uwtable
define dso_local void @_ZN37btSequentialImpulseConstraintSolverMt34randomizeBatchedConstraintOrderingEP20btBatchedConstraints(ptr noundef nonnull align 8 dereferenceable(920) %0, ptr noundef readonly captures(none) %1) local_unnamed_addr #0 align 2 {
  %3 = getelementptr inbounds nuw i8, ptr %1, i64 132
  %4 = load i32, ptr %3, align 4, !tbaa !16
  %5 = icmp sgt i32 %4, 1
  br i1 %5, label %.lr.ph, label %.preheader

.lr.ph:                                           ; preds = %2
  %6 = getelementptr inbounds nuw i8, ptr %1, i64 144
  br label %12

.preheader:                                       ; preds = %12, %2
  %7 = getelementptr inbounds nuw i8, ptr %1, i64 36
  %8 = load i32, ptr %7, align 4, !tbaa !23
  %9 = icmp sgt i32 %8, 0
  br i1 %9, label %.lr.ph29, label %._crit_edge30

.lr.ph29:                                         ; preds = %.preheader
  %10 = getelementptr inbounds nuw i8, ptr %1, i64 48
  %11 = getelementptr inbounds nuw i8, ptr %1, i64 16
  br label %24

12:                                               ; preds = %.lr.ph, %12
  %indvars.iv = phi i64 [ 1, %.lr.ph ], [ %indvars.iv.next, %12 ]
  %indvars.iv.next = add nuw nsw i64 %indvars.iv, 1
  %13 = trunc nuw nsw i64 %indvars.iv.next to i32
  %14 = tail call noundef i32 @_ZN35btSequentialImpulseConstraintSolver10btRandInt2Ei(ptr noundef nonnull align 8 dereferenceable(408) %0, i32 noundef %13)
  %15 = load ptr, ptr %6, align 8, !tbaa !15
  %16 = getelementptr inbounds nuw i32, ptr %15, i64 %indvars.iv
  %17 = load i32, ptr %16, align 4, !tbaa !67
  %18 = sext i32 %14 to i64
  %19 = getelementptr inbounds i32, ptr %15, i64 %18
  %20 = load i32, ptr %19, align 4, !tbaa !67
  store i32 %20, ptr %16, align 4, !tbaa !67
  store i32 %17, ptr %19, align 4, !tbaa !67
  %21 = load i32, ptr %3, align 4, !tbaa !16
  %22 = sext i32 %21 to i64
  %23 = icmp slt i64 %indvars.iv.next, %22
  br i1 %23, label %12, label %.preheader, !llvm.loop !247

._crit_edge30:                                    ; preds = %._crit_edge, %.preheader
  ret void

24:                                               ; preds = %.lr.ph29, %._crit_edge
  %25 = phi i32 [ %8, %.lr.ph29 ], [ %33, %._crit_edge ]
  %indvars.iv35 = phi i64 [ 0, %.lr.ph29 ], [ %indvars.iv.next36, %._crit_edge ]
  %26 = load ptr, ptr %10, align 8, !tbaa !22
  %27 = getelementptr inbounds nuw %"struct.btBatchedConstraints::Range", ptr %26, i64 %indvars.iv35
  %28 = load i32, ptr %27, align 4, !tbaa !103
  %29 = getelementptr inbounds nuw i8, ptr %27, i64 4
  %30 = load i32, ptr %29, align 4, !tbaa !105
  %31 = icmp slt i32 %28, %30
  br i1 %31, label %.lr.ph27.preheader, label %._crit_edge

.lr.ph27.preheader:                               ; preds = %24
  %32 = sext i32 %28 to i64
  br label %.lr.ph27

._crit_edge.loopexit:                             ; preds = %.lr.ph27
  %.pre = load i32, ptr %7, align 4, !tbaa !23
  br label %._crit_edge

._crit_edge:                                      ; preds = %._crit_edge.loopexit, %24
  %33 = phi i32 [ %.pre, %._crit_edge.loopexit ], [ %25, %24 ]
  %indvars.iv.next36 = add nuw nsw i64 %indvars.iv35, 1
  %34 = sext i32 %33 to i64
  %35 = icmp slt i64 %indvars.iv.next36, %34
  br i1 %35, label %24, label %._crit_edge30, !llvm.loop !248

.lr.ph27:                                         ; preds = %.lr.ph27.preheader, %.lr.ph27
  %indvars.iv32 = phi i64 [ %32, %.lr.ph27.preheader ], [ %indvars.iv.next33, %.lr.ph27 ]
  %36 = load i32, ptr %27, align 4, !tbaa !103
  %indvars.iv.next33 = add nsw i64 %indvars.iv32, 1
  %37 = trunc nsw i64 %indvars.iv.next33 to i32
  %38 = sub i32 %37, %36
  %39 = tail call noundef i32 @_ZN35btSequentialImpulseConstraintSolver10btRandInt2Ei(ptr noundef nonnull align 8 dereferenceable(408) %0, i32 noundef %38)
  %40 = add nsw i32 %39, %36
  %41 = load ptr, ptr %11, align 8, !tbaa !15
  %42 = getelementptr inbounds i32, ptr %41, i64 %indvars.iv32
  %43 = load i32, ptr %42, align 4, !tbaa !67
  %44 = sext i32 %40 to i64
  %45 = getelementptr inbounds i32, ptr %41, i64 %44
  %46 = load i32, ptr %45, align 4, !tbaa !67
  store i32 %46, ptr %42, align 4, !tbaa !67
  store i32 %43, ptr %45, align 4, !tbaa !67
  %47 = load i32, ptr %29, align 4, !tbaa !105
  %48 = sext i32 %47 to i64
  %49 = icmp slt i64 %indvars.iv.next33, %48
  br i1 %49, label %.lr.ph27, label %._crit_edge.loopexit, !llvm.loop !249
}